ccopy_reg
_reconstructor
p0
(cgoogle.oauth2.credentials
Credentials
p1
c__builtin__
object
p2
Ntp3
Rp4
(dp5
S'_token_uri'
p6
Vhttps://oauth2.googleapis.com/token
p7
sS'_scopes'
p8
(lp9
S'https://www.googleapis.com/auth/calendar.readonly'
p10
asS'_id_token'
p11
NsS'token'
p12
Vya29.GlvNBmrQBC7NHXg50Y5IFOyGbSjKN9mnilbJKHGNb1Brz31N6Qt4el49h93X6QTzvp8ioSpbtXtvy3FwnerAQVhQ3rMai2-uyjyS2O2y1F8IwW80tjELkHqr0iej
p13
sS'_refresh_token'
p14
V1/l5JIFpMAqOcpXkBoqXRvxKkCjLu9UUQqtR7InEge_Ao
p15
sS'_client_secret'
p16
VTPu--ec-iU7_hFcWdvZ6qO_f
p17
sS'_client_id'
p18
V338641301465-7dqto63e3lvbb46t5hiiplroenk4hujt.apps.googleusercontent.com
p19
sS'expiry'
p20
cdatetime
datetime
p21
(S'\x07\xe3\x03\x0f\x11&\x03\x02\x15b'
p22
tp23
Rp24
sb.